target datalayout = "e-m:e-p270:32:32-p271:32:32-p272:64:64-i64:64-i128:128-f80:128-n8:16:32:64-S128"
target triple = "x86_64-pc-linux-gnu"

%struct.AVFilterContext = type { ptr, ptr, ptr, ptr, ptr, i32, ptr, ptr, i32, ptr, ptr, i32, i32, ptr, ptr, ptr, ptr, i32, ptr, i32, i32 }
%struct.SineContext = type { ptr, double, double, ptr, ptr, i32, i64, ptr, i64, %struct.SamplingContext, %struct.SamplingContext, i32, i32, i32 }
%struct.SamplingContext = type { i32, i32, i32, i32, i32 }

@var_names = internal constant [5 x ptr] [ptr @.str.20, ptr @.str.21, ptr @.str.22, ptr @.str.23, ptr null], align 16

; Function Attrs: nounwind uwtable
define internal void @make_sin_table(ptr noundef %0) #1 {
  %2 = alloca ptr, align 8
  %3 = alloca i32, align 4
  %4 = alloca i32, align 4
  %5 = alloca i64, align 8
  %6 = alloca i32, align 4
  %7 = alloca i32, align 4
  %8 = alloca i32, align 4
  %9 = alloca i32, align 4
  %10 = alloca i32, align 4
  %11 = alloca i32, align 4
  %12 = alloca i32, align 4
  store ptr %0, ptr %2, align 8, !tbaa !61
  call void @llvm.lifetime.start.p0(i64 4, ptr %3) #9
  store i32 8192, ptr %3, align 4, !tbaa !37
  call void @llvm.lifetime.start.p0(i64 4, ptr %4) #9
  store i32 32760, ptr %4, align 4, !tbaa !37
  call void @llvm.lifetime.start.p0(i64 8, ptr %5) #9
  %13 = load i32, ptr %4, align 4, !tbaa !37
  %14 = load i32, ptr %4, align 4, !tbaa !37
  %15 = mul i32 %13, %14
  %16 = zext i32 %15 to i64
  %17 = shl i64 %16, 32
  store i64 %17, ptr %5, align 8, !tbaa !83
  call void @llvm.lifetime.start.p0(i64 4, ptr %6) #9
  call void @llvm.lifetime.start.p0(i64 4, ptr %7) #9
  call void @llvm.lifetime.start.p0(i64 4, ptr %8) #9
  call void @llvm.lifetime.start.p0(i64 4, ptr %9) #9
  call void @llvm.lifetime.start.p0(i64 4, ptr %10) #9
  call void @llvm.lifetime.start.p0(i64 4, ptr %11) #9
  call void @llvm.lifetime.start.p0(i64 4, ptr %12) #9
  %18 = load ptr, ptr %2, align 8, !tbaa !61
  %19 = getelementptr inbounds i16, ptr %18, i64 0
  store i16 0, ptr %19, align 2, !tbaa !63
  %20 = load i32, ptr %4, align 4, !tbaa !37
  %21 = trunc i32 %20 to i16
  %22 = load ptr, ptr %2, align 8, !tbaa !61
  %23 = load i32, ptr %3, align 4, !tbaa !37
  %24 = zext i32 %23 to i64
  %25 = getelementptr inbounds nuw i16, ptr %22, i64 %24
  store i16 %21, ptr %25, align 2, !tbaa !63
  %26 = load i32, ptr %3, align 4, !tbaa !37
  store i32 %26, ptr %6, align 4, !tbaa !37
  br label %27

27:                                               ; preds = %133, %1
  %28 = load i32, ptr %6, align 4, !tbaa !37
  %29 = icmp ugt i32 %28, 1
  br i1 %29, label %30, label %136

30:                                               ; preds = %27
  store i32 65536, ptr %10, align 4, !tbaa !37
  store i32 0, ptr %7, align 4, !tbaa !37
  br label %31

31:                                               ; preds = %128, %30
  %32 = load i32, ptr %7, align 4, !tbaa !37
  %33 = load i32, ptr %3, align 4, !tbaa !37
  %34 = udiv i32 %33, 2
  %35 = icmp ult i32 %32, %34
  br i1 %35, label %36, label %132

36:                                               ; preds = %31
  %37 = load ptr, ptr %2, align 8, !tbaa !61
  %38 = load i32, ptr %7, align 4, !tbaa !37
  %39 = zext i32 %38 to i64
  %40 = getelementptr inbounds nuw i16, ptr %37, i64 %39
  %41 = load i16, ptr %40, align 2, !tbaa !63
  %42 = sext i16 %41 to i32
  %43 = load ptr, ptr %2, align 8, !tbaa !61
  %44 = load i32, ptr %7, align 4, !tbaa !37
  %45 = load i32, ptr %6, align 4, !tbaa !37
  %46 = add i32 %44, %45
  %47 = zext i32 %46 to i64
  %48 = getelementptr inbounds nuw i16, ptr %43, i64 %47
  %49 = load i16, ptr %48, align 2, !tbaa !63
  %50 = sext i16 %49 to i32
  %51 = add nsw i32 %42, %50
  store i32 %51, ptr %9, align 4, !tbaa !37
  %52 = load ptr, ptr %2, align 8, !tbaa !61
  %53 = load i32, ptr %3, align 4, !tbaa !37
  %54 = load i32, ptr %7, align 4, !tbaa !37
  %55 = sub i32 %53, %54
  %56 = zext i32 %55 to i64
  %57 = getelementptr inbounds nuw i16, ptr %52, i64 %56
  %58 = load i16, ptr %57, align 2, !tbaa !63
  %59 = sext i16 %58 to i32
  %60 = load ptr, ptr %2, align 8, !tbaa !61
  %61 = load i32, ptr %3, align 4, !tbaa !37
  %62 = load i32, ptr %7, align 4, !tbaa !37
  %63 = sub i32 %61, %62
  %64 = load i32, ptr %6, align 4, !tbaa !37
  %65 = sub i32 %63, %64
  %66 = zext i32 %65 to i64
  %67 = getelementptr inbounds nuw i16, ptr %60, i64 %66
  %68 = load i16, ptr %67, align 2, !tbaa !63
  %69 = sext i16 %68 to i32
  %70 = add nsw i32 %59, %69
  store i32 %70, ptr %8, align 4, !tbaa !37
  %71 = load i32, ptr %9, align 4, !tbaa !37
  %72 = load i32, ptr %9, align 4, !tbaa !37
  %73 = mul i32 %71, %72
  %74 = load i32, ptr %8, align 4, !tbaa !37
  %75 = load i32, ptr %8, align 4, !tbaa !37
  %76 = mul i32 %74, %75
  %77 = add i32 %73, %76
  store i32 %77, ptr %12, align 4, !tbaa !37
  br label %78

78:                                               ; preds = %97, %36
  br label %79

79:                                               ; preds = %78
  %80 = load i32, ptr %10, align 4, !tbaa !37
  %81 = zext i32 %80 to i64
  %82 = load i64, ptr %5, align 8, !tbaa !83
  %83 = load i32, ptr %10, align 4, !tbaa !37
  %84 = zext i32 %83 to i64
  %85 = load i32, ptr %12, align 4, !tbaa !37
  %86 = zext i32 %85 to i64
  %87 = mul i64 %84, %86
  %88 = udiv i64 %82, %87
  %89 = add i64 %81, %88
  %90 = add i64 %89, 1
  %91 = lshr i64 %90, 1
  %92 = trunc i64 %91 to i32
  store i32 %92, ptr %11, align 4, !tbaa !37
  %93 = load i32, ptr %10, align 4, !tbaa !37
  %94 = load i32, ptr %11, align 4, !tbaa !37
  %95 = icmp eq i32 %93, %94
  br i1 %95, label %96, label %97

96:                                               ; preds = %79
  br label %99

97:                                               ; preds = %79
  %98 = load i32, ptr %11, align 4, !tbaa !37
  store i32 %98, ptr %10, align 4, !tbaa !37
  br label %78

99:                                               ; preds = %96
  %100 = load i32, ptr %10, align 4, !tbaa !37
  %101 = load i32, ptr %9, align 4, !tbaa !37
  %102 = mul i32 %100, %101
  %103 = add i32 %102, 32767
  %104 = lshr i32 %103, 16
  %105 = trunc i32 %104 to i16
  %106 = load ptr, ptr %2, align 8, !tbaa !61
  %107 = load i32, ptr %7, align 4, !tbaa !37
  %108 = load i32, ptr %6, align 4, !tbaa !37
  %109 = udiv i32 %108, 2
  %110 = add i32 %107, %109
  %111 = zext i32 %110 to i64
  %112 = getelementptr inbounds nuw i16, ptr %106, i64 %111
  store i16 %105, ptr %112, align 2, !tbaa !63
  %113 = load i32, ptr %10, align 4, !tbaa !37
  %114 = load i32, ptr %8, align 4, !tbaa !37
  %115 = mul i32 %113, %114
  %116 = add i32 %115, 32768
  %117 = lshr i32 %116, 16
  %118 = trunc i32 %117 to i16
  %119 = load ptr, ptr %2, align 8, !tbaa !61
  %120 = load i32, ptr %3, align 4, !tbaa !37
  %121 = load i32, ptr %7, align 4, !tbaa !37
  %122 = sub i32 %120, %121
  %123 = load i32, ptr %6, align 4, !tbaa !37
  %124 = udiv i32 %123, 2
  %125 = sub i32 %122, %124
  %126 = zext i32 %125 to i64
  %127 = getelementptr inbounds nuw i16, ptr %119, i64 %126
  store i16 %118, ptr %127, align 2, !tbaa !63
  br label %128

128:                                              ; preds = %99
  %129 = load i32, ptr %6, align 4, !tbaa !37
  %130 = load i32, ptr %7, align 4, !tbaa !37
  %131 = add i32 %130, %129
  store i32 %131, ptr %7, align 4, !tbaa !37
  br label %31, !llvm.loop !84

132:                                              ; preds = %31
  br label %133

133:                                              ; preds = %132
  %134 = load i32, ptr %6, align 4, !tbaa !37
  %135 = udiv i32 %134, 2
  store i32 %135, ptr %6, align 4, !tbaa !37
  br label %27, !llvm.loop !85

136:                                              ; preds = %27
  store i32 0, ptr %7, align 4, !tbaa !37
  br label %137

137:                                              ; preds = %155, %136
  %138 = load i32, ptr %7, align 4, !tbaa !37
  %139 = load i32, ptr %3, align 4, !tbaa !37
  %140 = icmp ule i32 %138, %139
  br i1 %140, label %141, label %158

141:                                              ; preds = %137
  %142 = load ptr, ptr %2, align 8, !tbaa !61
  %143 = load i32, ptr %7, align 4, !tbaa !37
  %144 = zext i32 %143 to i64
  %145 = getelementptr inbounds nuw i16, ptr %142, i64 %144
  %146 = load i16, ptr %145, align 2, !tbaa !63
  %147 = sext i16 %146 to i32
  %148 = add nsw i32 %147, 4
  %149 = ashr i32 %148, 3
  %150 = trunc i32 %149 to i16
  %151 = load ptr, ptr %2, align 8, !tbaa !61
  %152 = load i32, ptr %7, align 4, !tbaa !37
  %153 = zext i32 %152 to i64
  %154 = getelementptr inbounds nuw i16, ptr %151, i64 %153
  store i16 %150, ptr %154, align 2, !tbaa !63
  br label %155

155:                                              ; preds = %141
  %156 = load i32, ptr %7, align 4, !tbaa !37
  %157 = add i32 %156, 1
  store i32 %157, ptr %7, align 4, !tbaa !37
  br label %137, !llvm.loop !86

158:                                              ; preds = %137
  store i32 0, ptr %7, align 4, !tbaa !37
  br label %159

159:                                              ; preds = %176, %158
  %160 = load i32, ptr %7, align 4, !tbaa !37
  %161 = load i32, ptr %3, align 4, !tbaa !37
  %162 = icmp ult i32 %160, %161
  br i1 %162, label %163, label %179

163:                                              ; preds = %159
  %164 = load ptr, ptr %2, align 8, !tbaa !61
  %165 = load i32, ptr %7, align 4, !tbaa !37
  %166 = zext i32 %165 to i64
  %167 = getelementptr inbounds nuw i16, ptr %164, i64 %166
  %168 = load i16, ptr %167, align 2, !tbaa !63
  %169 = load ptr, ptr %2, align 8, !tbaa !61
  %170 = load i32, ptr %3, align 4, !tbaa !37
  %171 = mul i32 %170, 2
  %172 = load i32, ptr %7, align 4, !tbaa !37
  %173 = sub i32 %171, %172
  %174 = zext i32 %173 to i64
  %175 = getelementptr inbounds nuw i16, ptr %169, i64 %174
  store i16 %168, ptr %175, align 2, !tbaa !63
  br label %176

176:                                              ; preds = %163
  %177 = load i32, ptr %7, align 4, !tbaa !37
  %178 = add i32 %177, 1
  store i32 %178, ptr %7, align 4, !tbaa !37
  br label %159, !llvm.loop !87

179:                                              ; preds = %159
  store i32 0, ptr %7, align 4, !tbaa !37
  br label %180

180:                                              ; preds = %201, %179
  %181 = load i32, ptr %7, align 4, !tbaa !37
  %182 = load i32, ptr %3, align 4, !tbaa !37
  %183 = mul i32 2, %182
  %184 = icmp ult i32 %181, %183
  br i1 %184, label %185, label %204

185:                                              ; preds = %180
  %186 = load ptr, ptr %2, align 8, !tbaa !61
  %187 = load i32, ptr %7, align 4, !tbaa !37
  %188 = zext i32 %187 to i64
  %189 = getelementptr inbounds nuw i16, ptr %186, i64 %188
  %190 = load i16, ptr %189, align 2, !tbaa !63
  %191 = sext i16 %190 to i32
  %192 = sub nsw i32 0, %191
  %193 = trunc i32 %192 to i16
  %194 = load ptr, ptr %2, align 8, !tbaa !61
  %195 = load i32, ptr %7, align 4, !tbaa !37
  %196 = load i32, ptr %3, align 4, !tbaa !37
  %197 = mul i32 2, %196
  %198 = add i32 %195, %197
  %199 = zext i32 %198 to i64
  %200 = getelementptr inbounds nuw i16, ptr %194, i64 %199
  store i16 %193, ptr %200, align 2, !tbaa !63
  br label %201

201:                                              ; preds = %185
  %202 = load i32, ptr %7, align 4, !tbaa !37
  %203 = add i32 %202, 1
  store i32 %203, ptr %7, align 4, !tbaa !37
  br label %180, !llvm.loop !88

204:                                              ; preds = %180
  call void @llvm.lifetime.end.p0(i64 4, ptr %12) #9
  call void @llvm.lifetime.end.p0(i64 4, ptr %11) #9
  call void @llvm.lifetime.end.p0(i64 4, ptr %10) #9
  call void @llvm.lifetime.end.p0(i64 4, ptr %9) #9
  call void @llvm.lifetime.end.p0(i64 4, ptr %8) #9
  call void @llvm.lifetime.end.p0(i64 4, ptr %7) #9
  call void @llvm.lifetime.end.p0(i64 4, ptr %6) #9
  call void @llvm.lifetime.end.p0(i64 8, ptr %5) #9
  call void @llvm.lifetime.end.p0(i64 4, ptr %4) #9
  call void @llvm.lifetime.end.p0(i64 4, ptr %3) #9
  ret void
}

; Function Attrs: cold nounwind optsize uwtable
define internal i32 @init(ptr noundef %0) #0 {
  %2 = alloca i32, align 4
  %3 = alloca ptr, align 8
  %4 = alloca i32, align 4
  %5 = alloca ptr, align 8
  %6 = alloca i32, align 4
  store ptr %0, ptr %3, align 8, !tbaa !4
  call void @llvm.lifetime.start.p0(i64 4, ptr %4) #9
  call void @llvm.lifetime.start.p0(i64 8, ptr %5) #9
  %7 = load ptr, ptr %3, align 8, !tbaa !4
  %8 = getelementptr inbounds nuw %struct.AVFilterContext, ptr %7, i32 0, i32 9
  %9 = load ptr, ptr %8, align 8, !tbaa !9
  store ptr %9, ptr %5, align 8, !tbaa !22
  %10 = call noalias ptr @av_malloc(i64 noundef 65536)
  %11 = load ptr, ptr %5, align 8, !tbaa !22
  %12 = getelementptr inbounds nuw %struct.SineContext, ptr %11, i32 0, i32 7
  store ptr %10, ptr %12, align 8, !tbaa !24
  %13 = icmp ne ptr %10, null
  br i1 %13, label %15, label %14

14:                                               ; preds = %1
  store i32 -12, ptr %2, align 4
  store i32 1, ptr %6, align 4
  br label %68

15:                                               ; preds = %1
  %16 = load ptr, ptr %5, align 8, !tbaa !22
  %17 = getelementptr inbounds nuw %struct.SineContext, ptr %16, i32 0, i32 9
  %18 = load ptr, ptr %5, align 8, !tbaa !22
  %19 = getelementptr inbounds nuw %struct.SineContext, ptr %18, i32 0, i32 1
  %20 = load double, ptr %19, align 8, !tbaa !31
  %21 = load ptr, ptr %5, align 8, !tbaa !22
  %22 = getelementptr inbounds nuw %struct.SineContext, ptr %21, i32 0, i32 5
  %23 = load i32, ptr %22, align 8, !tbaa !32
  call void @sampling_init(ptr noundef %17, double noundef %20, i32 noundef %23)
  %24 = load ptr, ptr %5, align 8, !tbaa !22
  %25 = getelementptr inbounds nuw %struct.SineContext, ptr %24, i32 0, i32 7
  %26 = load ptr, ptr %25, align 8, !tbaa !24
  call void @make_sin_table(ptr noundef %26)
  %27 = load ptr, ptr %5, align 8, !tbaa !22
  %28 = getelementptr inbounds nuw %struct.SineContext, ptr %27, i32 0, i32 2
  %29 = load double, ptr %28, align 8, !tbaa !33
  %30 = fcmp nsz une double %29, 0.000000e+00
  br i1 %30, label %31, label %55

31:                                               ; preds = %15
  %32 = load ptr, ptr %5, align 8, !tbaa !22
  %33 = getelementptr inbounds nuw %struct.SineContext, ptr %32, i32 0, i32 5
  %34 = load i32, ptr %33, align 8, !tbaa !32
  %35 = load ptr, ptr %5, align 8, !tbaa !22
  %36 = getelementptr inbounds nuw %struct.SineContext, ptr %35, i32 0, i32 11
  store i32 %34, ptr %36, align 8, !tbaa !34
  %37 = load ptr, ptr %5, align 8, !tbaa !22
  %38 = getelementptr inbounds nuw %struct.SineContext, ptr %37, i32 0, i32 11
  %39 = load i32, ptr %38, align 8, !tbaa !34
  %40 = udiv i32 %39, 25
  %41 = load ptr, ptr %5, align 8, !tbaa !22
  %42 = getelementptr inbounds nuw %struct.SineContext, ptr %41, i32 0, i32 13
  store i32 %40, ptr %42, align 8, !tbaa !35
  %43 = load ptr, ptr %5, align 8, !tbaa !22
  %44 = getelementptr inbounds nuw %struct.SineContext, ptr %43, i32 0, i32 10
  %45 = load ptr, ptr %5, align 8, !tbaa !22
  %46 = getelementptr inbounds nuw %struct.SineContext, ptr %45, i32 0, i32 2
  %47 = load double, ptr %46, align 8, !tbaa !33
  %48 = load ptr, ptr %5, align 8, !tbaa !22
  %49 = getelementptr inbounds nuw %struct.SineContext, ptr %48, i32 0, i32 1
  %50 = load double, ptr %49, align 8, !tbaa !31
  %51 = fmul nsz double %47, %50
  %52 = load ptr, ptr %5, align 8, !tbaa !22
  %53 = getelementptr inbounds nuw %struct.SineContext, ptr %52, i32 0, i32 5
  %54 = load i32, ptr %53, align 8, !tbaa !32
  call void @sampling_init(ptr noundef %44, double noundef %51, i32 noundef %54)
  br label %55

55:                                               ; preds = %31, %15
  %56 = load ptr, ptr %5, align 8, !tbaa !22
  %57 = getelementptr inbounds nuw %struct.SineContext, ptr %56, i32 0, i32 4
  %58 = load ptr, ptr %5, align 8, !tbaa !22
  %59 = getelementptr inbounds nuw %struct.SineContext, ptr %58, i32 0, i32 3
  %60 = load ptr, ptr %59, align 8, !tbaa !36
  %61 = load ptr, ptr %5, align 8, !tbaa !22
  %62 = call i32 @av_expr_parse(ptr noundef %57, ptr noundef %60, ptr noundef @var_names, ptr noundef null, ptr noundef null, ptr noundef null, ptr noundef null, i32 noundef 0, ptr noundef %61)
  store i32 %62, ptr %4, align 4, !tbaa !37
  %63 = load i32, ptr %4, align 4, !tbaa !37
  %64 = icmp slt i32 %63, 0
  br i1 %64, label %65, label %67

65:                                               ; preds = %55
  %66 = load i32, ptr %4, align 4, !tbaa !37
  store i32 %66, ptr %2, align 4
  store i32 1, ptr %6, align 4
  br label %68

67:                                               ; preds = %55
  store i32 0, ptr %2, align 4
  store i32 1, ptr %6, align 4
  br label %68

68:                                               ; preds = %67, %65, %14
  call void @llvm.lifetime.end.p0(i64 8, ptr %5) #9
  call void @llvm.lifetime.end.p0(i64 4, ptr %4) #9
  %69 = load i32, ptr %2, align 4
  ret i32 %69
}