; Function Attrs: cold nounwind optsize uwtable
define internal range(i32 -2147483648, 1) i32 @init(ptr noundef readonly captures(none) %0) #0 {
  %2 = getelementptr inbounds nuw i8, ptr %0, i64 72
  %3 = load ptr, ptr %2, align 8, !tbaa !4
  %4 = tail call noalias ptr @av_malloc(i64 noundef 65536) #10
  %5 = getelementptr inbounds nuw i8, ptr %3, i64 56
  store ptr %4, ptr %5, align 8, !tbaa !20
  %.not = icmp eq ptr %4, null
  br i1 %.not, label %94, label %6

6:                                                ; preds = %1
  %7 = getelementptr inbounds nuw i8, ptr %3, i64 72
  %8 = getelementptr inbounds nuw i8, ptr %3, i64 8
  %9 = load double, ptr %8, align 8, !tbaa !27
  %10 = getelementptr inbounds nuw i8, ptr %3, i64 40
  %11 = load i32, ptr %10, align 8, !tbaa !28
  tail call fastcc void @sampling_init(ptr noundef nonnull %7, double noundef %9, i32 noundef %11)
  %12 = load ptr, ptr %5, align 8, !tbaa !20
  store i16 0, ptr %12, align 2, !tbaa !29
  %13 = getelementptr inbounds nuw i8, ptr %12, i64 16384
  store i16 32760, ptr %13, align 2, !tbaa !29
  br label %.preheader75.i

.preheader75.i:                                   ; preds = %62, %6
  %.078.i = phi i32 [ 8192, %6 ], [ %14, %62 ]
  %14 = lshr i32 %.078.i, 1
  %15 = zext nneg i32 %.078.i to i64
  %16 = zext nneg i32 %14 to i64
  %invariant.gep.i = getelementptr inbounds nuw i16, ptr %12, i64 %16
  br label %17

17:                                               ; preds = %49, %.preheader75.i
  %indvars.iv.i = phi i64 [ 0, %.preheader75.i ], [ %indvars.iv.next.i, %49 ]
  %.07076.i = phi i32 [ 65536, %.preheader75.i ], [ %.171.i, %49 ]
  %18 = getelementptr inbounds nuw i16, ptr %12, i64 %indvars.iv.i
  %19 = load i16, ptr %18, align 2, !tbaa !29
  %20 = sext i16 %19 to i32
  %indvars.iv.next.i = add nuw nsw i64 %indvars.iv.i, %15
  %21 = getelementptr inbounds nuw i16, ptr %12, i64 %indvars.iv.next.i
  %22 = load i16, ptr %21, align 2, !tbaa !29
  %23 = sext i16 %22 to i32
  %24 = add nsw i32 %23, %20
  %25 = sub nuw nsw i64 8192, %indvars.iv.i
  %26 = getelementptr inbounds nuw i16, ptr %12, i64 %25
  %27 = load i16, ptr %26, align 2, !tbaa !29
  %28 = sext i16 %27 to i32
  %29 = trunc nuw nsw i64 %25 to i32
  %30 = sub nsw i32 %29, %.078.i
  %31 = zext i32 %30 to i64
  %32 = getelementptr inbounds nuw i16, ptr %12, i64 %31
  %33 = load i16, ptr %32, align 2, !tbaa !29
  %34 = sext i16 %33 to i32
  %35 = add nsw i32 %34, %28
  %36 = mul i32 %24, %24
  %37 = mul i32 %35, %35
  %38 = add i32 %37, %36
  %39 = zext i32 %38 to i64
  br label %40

40:                                               ; preds = %40, %17
  %.171.i = phi i32 [ %.07076.i, %17 ], [ %47, %40 ]
  %41 = zext i32 %.171.i to i64
  %42 = mul nuw i64 %41, %39
  %43 = udiv i64 4609434493491609600, %42
  %44 = add nuw nsw i64 %41, 1
  %45 = add nuw nsw i64 %44, %43
  %46 = lshr i64 %45, 1
  %47 = trunc i64 %46 to i32
  %48 = icmp eq i32 %.171.i, %47
  br i1 %48, label %49, label %40

49:                                               ; preds = %40
  %50 = mul i32 %.171.i, %24
  %51 = add i32 %50, 32767
  %52 = lshr i32 %51, 16
  %53 = trunc nuw i32 %52 to i16
  %gep.i = getelementptr inbounds nuw i16, ptr %invariant.gep.i, i64 %indvars.iv.i
  store i16 %53, ptr %gep.i, align 2, !tbaa !29
  %54 = mul i32 %.171.i, %35
  %55 = add i32 %54, 32768
  %56 = lshr i32 %55, 16
  %57 = trunc nuw i32 %56 to i16
  %58 = sub nsw i32 %29, %14
  %59 = zext i32 %58 to i64
  %60 = getelementptr inbounds nuw i16, ptr %12, i64 %59
  store i16 %57, ptr %60, align 2, !tbaa !29
  %61 = icmp samesign ult i64 %indvars.iv.next.i, 4096
  br i1 %61, label %17, label %62, !llvm.loop !31

62:                                               ; preds = %49
  %63 = icmp samesign ugt i32 %.078.i, 3
  br i1 %63, label %.preheader75.i, label %.preheader74.i, !llvm.loop !33

.preheader74.i:                                   ; preds = %62, %.preheader74.i
  %indvars.iv83.i = phi i64 [ %indvars.iv.next84.i, %.preheader74.i ], [ 0, %62 ]
  %64 = getelementptr inbounds nuw i16, ptr %12, i64 %indvars.iv83.i
  %65 = load i16, ptr %64, align 2, !tbaa !29
  %66 = sext i16 %65 to i32
  %67 = add nsw i32 %66, 4
  %68 = lshr i32 %67, 3
  %69 = trunc i32 %68 to i16
  store i16 %69, ptr %64, align 2, !tbaa !29
  %indvars.iv.next84.i = add nuw nsw i64 %indvars.iv83.i, 1
  %exitcond.not.i = icmp eq i64 %indvars.iv.next84.i, 8193
  br i1 %exitcond.not.i, label %.preheader73.i, label %.preheader74.i, !llvm.loop !34

.preheader73.i:                                   ; preds = %.preheader74.i, %.preheader73.i
  %indvars.iv86.i = phi i64 [ %indvars.iv.next87.i, %.preheader73.i ], [ 0, %.preheader74.i ]
  %70 = getelementptr inbounds nuw i16, ptr %12, i64 %indvars.iv86.i
  %71 = load i16, ptr %70, align 2, !tbaa !29
  %72 = sub nuw nsw i64 16384, %indvars.iv86.i
  %73 = getelementptr inbounds nuw i16, ptr %12, i64 %72
  store i16 %71, ptr %73, align 2, !tbaa !29
  %indvars.iv.next87.i = add nuw nsw i64 %indvars.iv86.i, 1
  %exitcond89.not.i = icmp eq i64 %indvars.iv.next87.i, 8192
  br i1 %exitcond89.not.i, label %.preheader.i, label %.preheader73.i, !llvm.loop !35

.preheader.i:                                     ; preds = %.preheader73.i, %.preheader.i
  %indvars.iv90.i = phi i64 [ %indvars.iv.next91.i, %.preheader.i ], [ 0, %.preheader73.i ]
  %74 = getelementptr inbounds nuw i16, ptr %12, i64 %indvars.iv90.i
  %75 = load i16, ptr %74, align 2, !tbaa !29
  %76 = sub i16 0, %75
  %77 = getelementptr inbounds nuw i8, ptr %74, i64 32768
  store i16 %76, ptr %77, align 2, !tbaa !29
  %indvars.iv.next91.i = add nuw nsw i64 %indvars.iv90.i, 1
  %exitcond93.not.i = icmp eq i64 %indvars.iv.next91.i, 16384
  br i1 %exitcond93.not.i, label %make_sin_table.exit, label %.preheader.i, !llvm.loop !36

make_sin_table.exit:                              ; preds = %.preheader.i
  %78 = getelementptr inbounds nuw i8, ptr %3, i64 16
  %79 = load double, ptr %78, align 8, !tbaa !37
  %80 = fcmp nsz une double %79, 0.000000e+00
  br i1 %80, label %81, label %89

81:                                               ; preds = %make_sin_table.exit
  %82 = load i32, ptr %10, align 8, !tbaa !28
  %83 = getelementptr inbounds nuw i8, ptr %3, i64 112
  store i32 %82, ptr %83, align 8, !tbaa !38
  %84 = udiv i32 %82, 25
  %85 = getelementptr inbounds nuw i8, ptr %3, i64 120
  store i32 %84, ptr %85, align 8, !tbaa !39
  %86 = getelementptr inbounds nuw i8, ptr %3, i64 92
  %87 = load double, ptr %8, align 8, !tbaa !27
  %88 = fmul nsz double %79, %87
  tail call fastcc void @sampling_init(ptr noundef nonnull %86, double noundef %88, i32 noundef %82)
  br label %89

89:                                               ; preds = %81, %make_sin_table.exit
  %90 = getelementptr inbounds nuw i8, ptr %3, i64 32
  %91 = getelementptr inbounds nuw i8, ptr %3, i64 24
  %92 = load ptr, ptr %91, align 8, !tbaa !40
  %93 = tail call i32 @av_expr_parse(ptr noundef nonnull %90, ptr noundef %92, ptr noundef nonnull @var_names, ptr noundef null, ptr noundef null, ptr noundef null, ptr noundef null, i32 noundef 0, ptr noundef nonnull %3) #10
  %. = tail call i32 @llvm.smin.i32(i32 %93, i32 0)
  br label %94

94:                                               ; preds = %89, %1
  %.0 = phi i32 [ -12, %1 ], [ %., %89 ]
  ret i32 %.0
}